target datalayout = "e-m:e-p270:32:32-p271:32:32-p272:64:64-i64:64-i128:128-f80:128-n8:16:32:64-S128"
target triple = "x86_64-pc-linux-gnu"

%struct.pg_regex_t = type { i32, i64, i64, i32, ptr, i32, ptr, ptr }
%struct.guts = type { i32, i32, i64, i64, ptr, %struct.cnfa, i32, %struct.colormap, ptr, ptr, i32 }
%struct.cnfa = type { i32, i32, i32, i32, i32, [2 x i16], [2 x i16], ptr, ptr, ptr, i32, i32 }
%struct.colormap = type { i32, ptr, i64, i64, i16, ptr, ptr, [14 x i32], i32, ptr, ptr, i32, i32, i32, [10 x %struct.colordesc] }
%struct.colordesc = type { i32, i32, i16, ptr, i32, i32 }

; Function Attrs: nounwind uwtable
define dso_local i32 @pg_reg_getnumcharacters(ptr noundef %0, i32 noundef %1) #0 {
  %3 = alloca i32, align 4
  %4 = alloca ptr, align 8
  %5 = alloca i32, align 4
  %6 = alloca ptr, align 8
  %7 = alloca i32, align 4
  store ptr %0, ptr %4, align 8
  store i32 %1, ptr %5, align 4
  call void @llvm.lifetime.start.p0(i64 8, ptr %6) #3
  %8 = load ptr, ptr %4, align 8
  %9 = getelementptr inbounds nuw %struct.pg_regex_t, ptr %8, i32 0, i32 6
  %10 = load ptr, ptr %9, align 8
  %11 = getelementptr inbounds nuw %struct.guts, ptr %10, i32 0, i32 7
  store ptr %11, ptr %6, align 8
  %12 = load i32, ptr %5, align 4
  %13 = icmp sle i32 %12, 0
  br i1 %13, label %21, label %14

14:                                               ; preds = %2
  %15 = load i32, ptr %5, align 4
  %16 = sext i32 %15 to i64
  %17 = load ptr, ptr %6, align 8
  %18 = getelementptr inbounds nuw %struct.colormap, ptr %17, i32 0, i32 3
  %19 = load i64, ptr %18, align 8
  %20 = icmp ugt i64 %16, %19
  br i1 %20, label %21, label %22

21:                                               ; preds = %14, %2
  store i32 -1, ptr %3, align 4
  store i32 1, ptr %7, align 4
  br label %54

22:                                               ; preds = %14
  %23 = load ptr, ptr %6, align 8
  %24 = getelementptr inbounds nuw %struct.colormap, ptr %23, i32 0, i32 5
  %25 = load ptr, ptr %24, align 8
  %26 = load i32, ptr %5, align 4
  %27 = sext i32 %26 to i64
  %28 = getelementptr inbounds %struct.colordesc, ptr %25, i64 %27
  %29 = getelementptr inbounds nuw %struct.colordesc, ptr %28, i32 0, i32 5
  %30 = load i32, ptr %29, align 4
  %31 = and i32 %30, 2
  %32 = icmp ne i32 %31, 0
  br i1 %32, label %33, label %34

33:                                               ; preds = %22
  store i32 -1, ptr %3, align 4
  store i32 1, ptr %7, align 4
  br label %54

34:                                               ; preds = %22
  %35 = load ptr, ptr %6, align 8
  %36 = getelementptr inbounds nuw %struct.colormap, ptr %35, i32 0, i32 5
  %37 = load ptr, ptr %36, align 8
  %38 = load i32, ptr %5, align 4
  %39 = sext i32 %38 to i64
  %40 = getelementptr inbounds %struct.colordesc, ptr %37, i64 %39
  %41 = getelementptr inbounds nuw %struct.colordesc, ptr %40, i32 0, i32 1
  %42 = load i32, ptr %41, align 4
  %43 = icmp ne i32 %42, 0
  br i1 %43, label %44, label %45

44:                                               ; preds = %34
  store i32 -1, ptr %3, align 4
  store i32 1, ptr %7, align 4
  br label %54

45:                                               ; preds = %34
  %46 = load ptr, ptr %6, align 8
  %47 = getelementptr inbounds nuw %struct.colormap, ptr %46, i32 0, i32 5
  %48 = load ptr, ptr %47, align 8
  %49 = load i32, ptr %5, align 4
  %50 = sext i32 %49 to i64
  %51 = getelementptr inbounds %struct.colordesc, ptr %48, i64 %50
  %52 = getelementptr inbounds nuw %struct.colordesc, ptr %51, i32 0, i32 0
  %53 = load i32, ptr %52, align 8
  store i32 %53, ptr %3, align 4
  store i32 1, ptr %7, align 4
  br label %54

54:                                               ; preds = %45, %44, %33, %21
  call void @llvm.lifetime.end.p0(i64 8, ptr %6) #3
  %55 = load i32, ptr %3, align 4
  ret i32 %55
}