; Function Attrs: mustprogress nofree norecurse nosync nounwind willreturn memory(read, inaccessiblemem: none) uwtable
define dso_local i32 @pg_reg_getnumcharacters(ptr noundef readonly captures(none) %0, i32 noundef %1) local_unnamed_addr #0 {
  %3 = getelementptr inbounds nuw i8, ptr %0, i64 48
  %4 = load ptr, ptr %3, align 8
  %5 = icmp slt i32 %1, 1
  br i1 %5, label %23, label %6

6:                                                ; preds = %2
  %7 = zext nneg i32 %1 to i64
  %8 = getelementptr inbounds nuw i8, ptr %4, i64 128
  %9 = load i64, ptr %8, align 8
  %10 = icmp ult i64 %9, %7
  br i1 %10, label %23, label %11

11:                                               ; preds = %6
  %12 = getelementptr inbounds nuw i8, ptr %4, i64 144
  %13 = load ptr, ptr %12, align 8
  %14 = getelementptr inbounds nuw %struct.colordesc, ptr %13, i64 %7
  %15 = getelementptr inbounds nuw i8, ptr %14, i64 28
  %16 = load i32, ptr %15, align 4
  %17 = and i32 %16, 2
  %.not = icmp eq i32 %17, 0
  br i1 %.not, label %18, label %23

18:                                               ; preds = %11
  %19 = getelementptr inbounds nuw i8, ptr %14, i64 4
  %20 = load i32, ptr %19, align 4
  %.not12 = icmp eq i32 %20, 0
  br i1 %.not12, label %21, label %23

21:                                               ; preds = %18
  %22 = load i32, ptr %14, align 8
  br label %23

23:                                               ; preds = %18, %11, %2, %6, %21
  %.0 = phi i32 [ %22, %21 ], [ -1, %6 ], [ -1, %2 ], [ -1, %11 ], [ -1, %18 ]
  ret i32 %.0
}